target datalayout = "e-m:e-p270:32:32-p271:32:32-p272:64:64-i64:64-i128:128-f80:128-n8:16:32:64-S128"
target triple = "x86_64-pc-linux-gnu"

%struct.PrintfTarget = type { ptr, ptr, ptr, ptr, i32, i8 }

; Function Attrs: nounwind uwtable
define internal void @flushbuffer(ptr noundef %0) #0 {
  %2 = alloca ptr, align 8
  %3 = alloca i64, align 8
  %4 = alloca i64, align 8
  store ptr %0, ptr %2, align 8
  call void @llvm.lifetime.start.p0(i64 8, ptr %3) #10
  %5 = load ptr, ptr %2, align 8
  %6 = getelementptr inbounds nuw %struct.PrintfTarget, ptr %5, i32 0, i32 0
  %7 = load ptr, ptr %6, align 8
  %8 = load ptr, ptr %2, align 8
  %9 = getelementptr inbounds nuw %struct.PrintfTarget, ptr %8, i32 0, i32 1
  %10 = load ptr, ptr %9, align 8
  %11 = ptrtoint ptr %7 to i64
  %12 = ptrtoint ptr %10 to i64
  %13 = sub i64 %11, %12
  store i64 %13, ptr %3, align 8
  %14 = load ptr, ptr %2, align 8
  %15 = getelementptr inbounds nuw %struct.PrintfTarget, ptr %14, i32 0, i32 5
  %16 = load i8, ptr %15, align 4, !range !3, !noundef !4
  %17 = trunc i8 %16 to i1
  br i1 %17, label %44, label %18

18:                                               ; preds = %1
  %19 = load i64, ptr %3, align 8
  %20 = icmp ugt i64 %19, 0
  br i1 %20, label %21, label %44

21:                                               ; preds = %18
  call void @llvm.lifetime.start.p0(i64 8, ptr %4) #10
  %22 = load ptr, ptr %2, align 8
  %23 = getelementptr inbounds nuw %struct.PrintfTarget, ptr %22, i32 0, i32 1
  %24 = load ptr, ptr %23, align 8
  %25 = load i64, ptr %3, align 8
  %26 = load ptr, ptr %2, align 8
  %27 = getelementptr inbounds nuw %struct.PrintfTarget, ptr %26, i32 0, i32 3
  %28 = load ptr, ptr %27, align 8
  %29 = call i64 @fwrite(ptr noundef %24, i64 noundef 1, i64 noundef %25, ptr noundef %28)
  store i64 %29, ptr %4, align 8
  %30 = load i64, ptr %4, align 8
  %31 = load ptr, ptr %2, align 8
  %32 = getelementptr inbounds nuw %struct.PrintfTarget, ptr %31, i32 0, i32 4
  %33 = load i32, ptr %32, align 8
  %34 = sext i32 %33 to i64
  %35 = add i64 %34, %30
  %36 = trunc i64 %35 to i32
  store i32 %36, ptr %32, align 8
  %37 = load i64, ptr %4, align 8
  %38 = load i64, ptr %3, align 8
  %39 = icmp ne i64 %37, %38
  br i1 %39, label %40, label %43

40:                                               ; preds = %21
  %41 = load ptr, ptr %2, align 8
  %42 = getelementptr inbounds nuw %struct.PrintfTarget, ptr %41, i32 0, i32 5
  store i8 1, ptr %42, align 4
  br label %43

43:                                               ; preds = %40, %21
  call void @llvm.lifetime.end.p0(i64 8, ptr %4) #10
  br label %44

44:                                               ; preds = %43, %18, %1
  %45 = load ptr, ptr %2, align 8
  %46 = getelementptr inbounds nuw %struct.PrintfTarget, ptr %45, i32 0, i32 1
  %47 = load ptr, ptr %46, align 8
  %48 = load ptr, ptr %2, align 8
  %49 = getelementptr inbounds nuw %struct.PrintfTarget, ptr %48, i32 0, i32 0
  store ptr %47, ptr %49, align 8
  call void @llvm.lifetime.end.p0(i64 8, ptr %3) #10
  ret void
}

; Function Attrs: nounwind uwtable
define internal void @dopr_outch(i32 noundef %0, ptr noundef %1) #0 {
  %3 = alloca i32, align 4
  %4 = alloca ptr, align 8
  store i32 %0, ptr %3, align 4
  store ptr %1, ptr %4, align 8
  %5 = load ptr, ptr %4, align 8
  %6 = getelementptr inbounds nuw %struct.PrintfTarget, ptr %5, i32 0, i32 2
  %7 = load ptr, ptr %6, align 8
  %8 = icmp ne ptr %7, null
  br i1 %8, label %9, label %29

9:                                                ; preds = %2
  %10 = load ptr, ptr %4, align 8
  %11 = getelementptr inbounds nuw %struct.PrintfTarget, ptr %10, i32 0, i32 0
  %12 = load ptr, ptr %11, align 8
  %13 = load ptr, ptr %4, align 8
  %14 = getelementptr inbounds nuw %struct.PrintfTarget, ptr %13, i32 0, i32 2
  %15 = load ptr, ptr %14, align 8
  %16 = icmp uge ptr %12, %15
  br i1 %16, label %17, label %29

17:                                               ; preds = %9
  %18 = load ptr, ptr %4, align 8
  %19 = getelementptr inbounds nuw %struct.PrintfTarget, ptr %18, i32 0, i32 3
  %20 = load ptr, ptr %19, align 8
  %21 = icmp eq ptr %20, null
  br i1 %21, label %22, label %27

22:                                               ; preds = %17
  %23 = load ptr, ptr %4, align 8
  %24 = getelementptr inbounds nuw %struct.PrintfTarget, ptr %23, i32 0, i32 4
  %25 = load i32, ptr %24, align 8
  %26 = add i32 %25, 1
  store i32 %26, ptr %24, align 8
  br label %36

27:                                               ; preds = %17
  %28 = load ptr, ptr %4, align 8
  call void @flushbuffer(ptr noundef %28)
  br label %29

29:                                               ; preds = %27, %9, %2
  %30 = load i32, ptr %3, align 4
  %31 = trunc i32 %30 to i8
  %32 = load ptr, ptr %4, align 8
  %33 = getelementptr inbounds nuw %struct.PrintfTarget, ptr %32, i32 0, i32 0
  %34 = load ptr, ptr %33, align 8
  %35 = getelementptr inbounds nuw i8, ptr %34, i32 1
  store ptr %35, ptr %33, align 8
  store i8 %31, ptr %34, align 1
  br label %36

36:                                               ; preds = %29, %22
  ret void
}

; Function Attrs: nounwind uwtable
define internal void @dopr_outchmulti(i32 noundef %0, i32 noundef %1, ptr noundef %2) #0 {
  %4 = alloca i32, align 4
  %5 = alloca i32, align 4
  %6 = alloca ptr, align 8
  %7 = alloca i32, align 4
  %8 = alloca i32, align 4
  store i32 %0, ptr %4, align 4
  store i32 %1, ptr %5, align 4
  store ptr %2, ptr %6, align 8
  %9 = load i32, ptr %5, align 4
  %10 = icmp eq i32 %9, 1
  br i1 %10, label %11, label %14

11:                                               ; preds = %3
  %12 = load i32, ptr %4, align 4
  %13 = load ptr, ptr %6, align 8
  call void @dopr_outch(i32 noundef %12, ptr noundef %13)
  br label %81

14:                                               ; preds = %3
  br label %15

15:                                               ; preds = %80, %78, %14
  %16 = load i32, ptr %5, align 4
  %17 = icmp sgt i32 %16, 0
  br i1 %17, label %18, label %81

18:                                               ; preds = %15
  call void @llvm.lifetime.start.p0(i64 4, ptr %7) #10
  %19 = load ptr, ptr %6, align 8
  %20 = getelementptr inbounds nuw %struct.PrintfTarget, ptr %19, i32 0, i32 2
  %21 = load ptr, ptr %20, align 8
  %22 = icmp ne ptr %21, null
  br i1 %22, label %23, label %34

23:                                               ; preds = %18
  %24 = load ptr, ptr %6, align 8
  %25 = getelementptr inbounds nuw %struct.PrintfTarget, ptr %24, i32 0, i32 2
  %26 = load ptr, ptr %25, align 8
  %27 = load ptr, ptr %6, align 8
  %28 = getelementptr inbounds nuw %struct.PrintfTarget, ptr %27, i32 0, i32 0
  %29 = load ptr, ptr %28, align 8
  %30 = ptrtoint ptr %26 to i64
  %31 = ptrtoint ptr %29 to i64
  %32 = sub i64 %30, %31
  %33 = trunc i64 %32 to i32
  store i32 %33, ptr %7, align 4
  br label %36

34:                                               ; preds = %18
  %35 = load i32, ptr %5, align 4
  store i32 %35, ptr %7, align 4
  br label %36

36:                                               ; preds = %34, %23
  %37 = load i32, ptr %7, align 4
  %38 = icmp sle i32 %37, 0
  br i1 %38, label %39, label %52

39:                                               ; preds = %36
  %40 = load ptr, ptr %6, align 8
  %41 = getelementptr inbounds nuw %struct.PrintfTarget, ptr %40, i32 0, i32 3
  %42 = load ptr, ptr %41, align 8
  %43 = icmp eq ptr %42, null
  br i1 %43, label %44, label %50

44:                                               ; preds = %39
  %45 = load i32, ptr %5, align 4
  %46 = load ptr, ptr %6, align 8
  %47 = getelementptr inbounds nuw %struct.PrintfTarget, ptr %46, i32 0, i32 4
  %48 = load i32, ptr %47, align 8
  %49 = add i32 %48, %45
  store i32 %49, ptr %47, align 8
  store i32 1, ptr %8, align 4
  br label %78

50:                                               ; preds = %39
  %51 = load ptr, ptr %6, align 8
  call void @flushbuffer(ptr noundef %51)
  store i32 2, ptr %8, align 4
  br label %78, !llvm.loop !13

52:                                               ; preds = %36
  %53 = load i32, ptr %7, align 4
  %54 = load i32, ptr %5, align 4
  %55 = icmp slt i32 %53, %54
  br i1 %55, label %56, label %58

56:                                               ; preds = %52
  %57 = load i32, ptr %7, align 4
  br label %60

58:                                               ; preds = %52
  %59 = load i32, ptr %5, align 4
  br label %60

60:                                               ; preds = %58, %56
  %61 = phi i32 [ %57, %56 ], [ %59, %58 ]
  store i32 %61, ptr %7, align 4
  %62 = load ptr, ptr %6, align 8
  %63 = getelementptr inbounds nuw %struct.PrintfTarget, ptr %62, i32 0, i32 0
  %64 = load ptr, ptr %63, align 8
  %65 = load i32, ptr %4, align 4
  %66 = trunc i32 %65 to i8
  %67 = load i32, ptr %7, align 4
  %68 = sext i32 %67 to i64
  call void @llvm.memset.p0.i64(ptr align 1 %64, i8 %66, i64 %68, i1 false)
  %69 = load i32, ptr %7, align 4
  %70 = load ptr, ptr %6, align 8
  %71 = getelementptr inbounds nuw %struct.PrintfTarget, ptr %70, i32 0, i32 0
  %72 = load ptr, ptr %71, align 8
  %73 = sext i32 %69 to i64
  %74 = getelementptr inbounds i8, ptr %72, i64 %73
  store ptr %74, ptr %71, align 8
  %75 = load i32, ptr %7, align 4
  %76 = load i32, ptr %5, align 4
  %77 = sub i32 %76, %75
  store i32 %77, ptr %5, align 4
  store i32 0, ptr %8, align 4
  br label %78

78:                                               ; preds = %60, %50, %44
  call void @llvm.lifetime.end.p0(i64 4, ptr %7) #10
  %79 = load i32, ptr %8, align 4
  switch i32 %79, label %82 [
    i32 0, label %80
    i32 1, label %81
    i32 2, label %15
  ]

80:                                               ; preds = %78
  br label %15, !llvm.loop !13

81:                                               ; preds = %11, %78, %15
  ret void

82:                                               ; preds = %78
  unreachable
}