; Function Attrs: nofree nounwind uwtable
define internal fastcc void @dopr_outchmulti(i32 noundef range(i32 1, 49) %0, i32 noundef range(i32 0, -2147483647) %1, ptr noundef nonnull captures(none) %2) unnamed_addr #4 {
  %4 = icmp eq i32 %1, 1
  br i1 %4, label %12, label %.preheader

.preheader:                                       ; preds = %3
  %5 = icmp sgt i32 %1, 0
  br i1 %5, label %.lr.ph, label %dopr_outch.exit

.lr.ph:                                           ; preds = %.preheader
  %6 = getelementptr inbounds nuw i8, ptr %2, i64 16
  %7 = getelementptr inbounds nuw i8, ptr %2, i64 24
  %8 = getelementptr inbounds nuw i8, ptr %2, i64 8
  %9 = getelementptr inbounds nuw i8, ptr %2, i64 36
  %10 = getelementptr inbounds nuw i8, ptr %2, i64 32
  %11 = trunc nuw nsw i32 %0 to i8
  %.pre.pre = load ptr, ptr %2, align 8
  br label %45

12:                                               ; preds = %3
  %13 = getelementptr inbounds nuw i8, ptr %2, i64 16
  %14 = load ptr, ptr %13, align 8
  %.not.i = icmp eq ptr %14, null
  %.pre.i = load ptr, ptr %2, align 8
  %.not7.i = icmp ult ptr %.pre.i, %14
  %or.cond.i = select i1 %.not.i, i1 true, i1 %.not7.i
  br i1 %or.cond.i, label %41, label %15

15:                                               ; preds = %12
  %16 = getelementptr inbounds nuw i8, ptr %2, i64 24
  %17 = load ptr, ptr %16, align 8
  %18 = icmp eq ptr %17, null
  br i1 %18, label %19, label %23

19:                                               ; preds = %15
  %20 = getelementptr inbounds nuw i8, ptr %2, i64 32
  %21 = load i32, ptr %20, align 8
  %22 = add i32 %21, 1
  store i32 %22, ptr %20, align 8
  br label %dopr_outch.exit

23:                                               ; preds = %15
  %24 = getelementptr inbounds nuw i8, ptr %2, i64 8
  %25 = load ptr, ptr %24, align 8
  %26 = getelementptr inbounds nuw i8, ptr %2, i64 36
  %27 = load i8, ptr %26, align 4, !range !3, !noundef !4
  %28 = trunc nuw i8 %27 to i1
  %29 = icmp eq ptr %.pre.i, %25
  %or.cond.not.i.i = select i1 %28, i1 true, i1 %29
  br i1 %or.cond.not.i.i, label %flushbuffer.exit.i, label %30

30:                                               ; preds = %23
  %31 = ptrtoint ptr %25 to i64
  %32 = ptrtoint ptr %.pre.i to i64
  %33 = sub i64 %32, %31
  %34 = tail call i64 @fwrite(ptr noundef %25, i64 noundef 1, i64 noundef %33, ptr noundef nonnull %17)
  %35 = getelementptr inbounds nuw i8, ptr %2, i64 32
  %36 = load i32, ptr %35, align 8
  %37 = trunc i64 %34 to i32
  %38 = add i32 %36, %37
  store i32 %38, ptr %35, align 8
  %.not.i.i = icmp eq i64 %34, %33
  br i1 %.not.i.i, label %flushbuffer.exit.i, label %39

39:                                               ; preds = %30
  store i8 1, ptr %26, align 4
  br label %flushbuffer.exit.i

flushbuffer.exit.i:                               ; preds = %39, %30, %23
  %40 = load ptr, ptr %24, align 8
  br label %41

41:                                               ; preds = %flushbuffer.exit.i, %12
  %42 = phi ptr [ %40, %flushbuffer.exit.i ], [ %.pre.i, %12 ]
  %43 = trunc nuw nsw i32 %0 to i8
  %44 = getelementptr inbounds nuw i8, ptr %42, i64 1
  store ptr %44, ptr %2, align 8
  store i8 %43, ptr %42, align 1
  br label %dopr_outch.exit

45:                                               ; preds = %.lr.ph, %77
  %.pre = phi ptr [ %.pre.pre, %.lr.ph ], [ %.pre40, %77 ]
  %.02537 = phi i32 [ %1, %.lr.ph ], [ %.1, %77 ]
  %46 = load ptr, ptr %6, align 8
  %.not = icmp eq ptr %46, null
  br i1 %.not, label %.thread, label %47

47:                                               ; preds = %45
  %48 = ptrtoint ptr %46 to i64
  %49 = ptrtoint ptr %.pre to i64
  %50 = sub i64 %48, %49
  %51 = trunc i64 %50 to i32
  %52 = icmp slt i32 %51, 1
  br i1 %52, label %53, label %.thread

53:                                               ; preds = %47
  %54 = load ptr, ptr %7, align 8
  %55 = icmp eq ptr %54, null
  br i1 %55, label %.thread31, label %58

.thread31:                                        ; preds = %53
  %56 = load i32, ptr %10, align 8
  %57 = add i32 %56, %.02537
  store i32 %57, ptr %10, align 8
  br label %dopr_outch.exit

58:                                               ; preds = %53
  %59 = load ptr, ptr %8, align 8
  %60 = load i8, ptr %9, align 4, !range !3, !noundef !4
  %61 = trunc nuw i8 %60 to i1
  %62 = icmp eq ptr %.pre, %59
  %or.cond.not.i = select i1 %61, i1 true, i1 %62
  br i1 %or.cond.not.i, label %flushbuffer.exit, label %63

63:                                               ; preds = %58
  %64 = ptrtoint ptr %59 to i64
  %65 = sub i64 %49, %64
  %66 = tail call i64 @fwrite(ptr noundef %59, i64 noundef 1, i64 noundef %65, ptr noundef nonnull %54)
  %67 = load i32, ptr %10, align 8
  %68 = trunc i64 %66 to i32
  %69 = add i32 %67, %68
  store i32 %69, ptr %10, align 8
  %.not.i28 = icmp eq i64 %66, %65
  br i1 %.not.i28, label %flushbuffer.exit, label %70

70:                                               ; preds = %63
  store i8 1, ptr %9, align 4
  br label %flushbuffer.exit

flushbuffer.exit:                                 ; preds = %58, %63, %70
  %71 = load ptr, ptr %8, align 8
  store ptr %71, ptr %2, align 8
  br label %77, !llvm.loop !13

.thread:                                          ; preds = %45, %47
  %.02430 = phi i32 [ %51, %47 ], [ %.02537, %45 ]
  %72 = tail call i32 @llvm.umin.i32(i32 %.02430, i32 %.02537)
  %73 = zext nneg i32 %72 to i64
  tail call void @llvm.memset.p0.i64(ptr align 1 %.pre, i8 %11, i64 %73, i1 false)
  %74 = load ptr, ptr %2, align 8
  %75 = getelementptr inbounds nuw i8, ptr %74, i64 %73
  store ptr %75, ptr %2, align 8
  %76 = sub nsw i32 %.02537, %72
  br label %77

77:                                               ; preds = %.thread, %flushbuffer.exit
  %.pre40 = phi ptr [ %71, %flushbuffer.exit ], [ %75, %.thread ]
  %.1 = phi i32 [ %.02537, %flushbuffer.exit ], [ %76, %.thread ]
  %78 = icmp sgt i32 %.1, 0
  br i1 %78, label %45, label %dopr_outch.exit

dopr_outch.exit:                                  ; preds = %77, %.preheader, %.thread31, %41, %19
  ret void
}